(dp0
S'METTS MARK'
p1
(dp2
S'to_messages'
p3
F807.0
sS'deferral_payments'
p4
F0.0
sS'expenses'
p5
F94299.0
sS'poi'
p6
I00
sS'long_term_incentive'
p7
F0.0
sS'email_address'
p8
S'mark.metts@enron.com'
p9
sS'from_poi_to_this_person'
p10
F38.0
sS'deferred_income'
p11
F0.0
sS'restricted_stock_deferred'
p12
F0.0
sS'shared_receipt_with_poi'
p13
F702.0
sS'loan_advances'
p14
F0.0
sS'from_messages'
p15
F29.0
sS'other'
p16
F1740.0
sS'director_fees'
p17
F0.0
sS'ratio_exercised_stock_total_stock'
p18
F0.0
sS'bonus'
p19
F600000.0
sS'total_stock_value'
p20
F585062.0
sS'from_this_person_to_poi'
p21
F1.0
sS'restricted_stock'
p22
F585062.0
sS'salary'
p23
F365788.0
sS'total_payments'
p24
F1061827.0
sS'salary_times_bonus'
p25
F219472800000.0
sS'exercised_stock_options'
p26
F0.0
sS'ratio_restricted_total_stock'
p27
F1.0
ssS'BAXTER JOHN C'
p28
(dp29
g3
F0.0
sg4
F1295738.0
sg5
F11200.0
sg6
I00
sg7
F1586055.0
sg8
F0.0
sg10
F0.0
sg11
F-1386055.0
sg12
F0.0
sg13
F0.0
sg14
F0.0
sg15
F0.0
sg16
F2660303.0
sg17
F0.0
sg18
F0.6288601858299968
sg19
F1200000.0
sg20
F10623258.0
sg21
F0.0
sg22
F3942714.0
sg23
F267102.0
sg24
F5634343.0
sg25
F320522400000.0
sg26
F6680544.0
sg27
F0.3711398141700032
ssS'ELLIOTT STEVEN'
p30
(dp31
g3
F0.0
sg4
F0.0
sg5
F78552.0
sg6
I00
sg7
F0.0
sg8
S'steven.elliott@enron.com'
p32
sg10
F0.0
sg11
F-400729.0
sg12
F0.0
sg13
F0.0
sg14
F0.0
sg15
F0.0
sg16
F12961.0
sg17
F0.0
sg18
F0.7322260877246963
sg19
F350000.0
sg20
F6678735.0
sg21
F0.0
sg22
F1788391.0
sg23
F170941.0
sg24
F211725.0
sg25
F59829350000.0
sg26
F4890344.0
sg27
F0.2677739122753036
ssS'CORDES WILLIAM R'
p33
(dp34
g3
F764.0
sg4
F0.0
sg5
F0.0
sg6
I00
sg7
F0.0
sg8
S'bill.cordes@enron.com'
p35
sg10
F10.0
sg11
F0.0
sg12
F0.0
sg13
F58.0
sg14
F0.0
sg15
F12.0
sg16
F0.0
sg17
F0.0
sg18
F0.6278746080900803
sg19
F0.0
sg20
F1038185.0
sg21
F0.0
sg22
F386335.0
sg23
F0.0
sg24
F0.0
sg25
F0.0
sg26
F651850.0
sg27
F0.3721253919099197
ssS'HANNON KEVIN P'
p36
(dp37
g3
F1045.0
sg4
F0.0
sg5
F34039.0
sg6
I01
sg7
F1617011.0
sg8
S'kevin.hannon@enron.com'
p38
sg10
F32.0
sg11
F-3117011.0
sg12
F0.0
sg13
F1035.0
sg14
F0.0
sg15
F32.0
sg16
F11350.0
sg17
F0.0
sg18
F0.8665224027607292
sg19
F1500000.0
sg20
F6391065.0
sg21
F21.0
sg22
F853064.0
sg23
F243293.0
sg24
F288682.0
sg25
F364939500000.0
sg26
F5538001.0
sg27
F0.13347759723927077
ssS'MORDAUNT KRISTINA M'
p39
(dp40
g3
F0.0
sg4
F0.0
sg5
F35018.0
sg6
I00
sg7
F0.0
sg8
S'kristina.mordaunt@enron.com'
p41
sg10
F0.0
sg11
F0.0
sg12
F0.0
sg13
F0.0
sg14
F0.0
sg15
F0.0
sg16
F1411.0
sg17
F0.0
sg18
F0.0
sg19
F325000.0
sg20
F208510.0
sg21
F0.0
sg22
F208510.0
sg23
F267093.0
sg24
F628522.0
sg25
F86805225000.0
sg26
F0.0
sg27
F1.0
ssS'MEYER ROCKFORD G'
p42
(dp43
g3
F232.0
sg4
F1848227.0
sg5
F0.0
sg6
I00
sg7
F0.0
sg8
S'rockford.meyer@enron.com'
p44
sg10
F0.0
sg11
F0.0
sg12
F0.0
sg13
F22.0
sg14
F0.0
sg15
F28.0
sg16
F0.0
sg17
F0.0
sg18
F0.5162704668925684
sg19
F0.0
sg20
F955873.0
sg21
F0.0
sg22
F462384.0
sg23
F0.0
sg24
F1848227.0
sg25
F0.0
sg26
F493489.0
sg27
F0.4837295331074316
ssS'MCMAHON JEFFREY'
p45
(dp46
g3
F2355.0
sg4
F0.0
sg5
F137108.0
sg6
I00
sg7
F694862.0
sg8
S'jeffrey.mcmahon@enron.com'
p47
sg10
F58.0
sg11
F0.0
sg12
F0.0
sg13
F2228.0
sg14
F0.0
sg15
F48.0
sg16
F297353.0
sg17
F0.0
sg18
F0.6639508556067727
sg19
F2600000.0
sg20
F1662855.0
sg21
F26.0
sg22
F558801.0
sg23
F370448.0
sg24
F4099771.0
sg25
F963164800000.0
sg26
F1104054.0
sg27
F0.3360491443932273
ssS'HAEDICKE MARK E'
p48
(dp49
g3
F4009.0
sg4
F2157527.0
sg5
F76169.0
sg6
I00
sg7
F983346.0
sg8
S'mark.haedicke@enron.com'
p50
sg10
F180.0
sg11
F-934484.0
sg12
F-329825.0
sg13
F1847.0
sg14
F0.0
sg15
F1941.0
sg16
F52382.0
sg17
F0.0
sg18
F0.7580059121348186
sg19
F1150000.0
sg20
F803094.0
sg21
F61.0
sg22
F524169.0
sg23
F374125.0
sg24
F3859065.0
sg25
F430243750000.0
sg26
F608750.0
sg27
F0.6526869830928883
ssS'PIPER GREGORY F'
p51
(dp52
g3
F1238.0
sg4
F1130036.0
sg5
F43057.0
sg6
I00
sg7
F0.0
sg8
S'greg.piper@enron.com'
p53
sg10
F61.0
sg11
F-33333.0
sg12
F-409554.0
sg13
F742.0
sg14
F0.0
sg15
F222.0
sg16
F778.0
sg17
F0.0
sg18
F1.0
sg19
F400000.0
sg20
F880290.0
sg21
F48.0
sg22
F409554.0
sg23
F197091.0
sg24
F1737629.0
sg25
F78836400000.0
sg26
F880290.0
sg27
F0.46524895204989264
ssS'HUMPHREY GENE E'
p54
(dp55
g3
F128.0
sg4
F2964506.0
sg5
F4994.0
sg6
I00
sg7
F0.0
sg8
S'gene.humphrey@enron.com'
p56
sg10
F10.0
sg11
F0.0
sg12
F0.0
sg13
F119.0
sg14
F0.0
sg15
F17.0
sg16
F0.0
sg17
F0.0
sg18
F1.0
sg19
F0.0
sg20
F2282768.0
sg21
F17.0
sg22
F0.0
sg23
F130724.0
sg24
F3100224.0
sg25
F0.0
sg26
F2282768.0
sg27
F0.0
ssS'NOLES JAMES L'
p57
(dp58
g3
F0.0
sg4
F774401.0
sg5
F0.0
sg6
I00
sg7
F0.0
sg8
F0.0
sg10
F0.0
sg11
F0.0
sg12
F-94556.0
sg13
F0.0
sg14
F0.0
sg15
F0.0
sg16
F0.0
sg17
F0.0
sg18
F0.0
sg19
F0.0
sg20
F368705.0
sg21
F0.0
sg22
F463261.0
sg23
F0.0
sg24
F774401.0
sg25
F0.0
sg26
F0.0
sg27
F1.2564543469711558
ssS'BLACHMAN JEREMY M'
p59
(dp60
g3
F2475.0
sg4
F0.0
sg5
F84208.0
sg6
I00
sg7
F831809.0
sg8
S'jeremy.blachman@enron.com'
p61
sg10
F25.0
sg11
F0.0
sg12
F0.0
sg13
F2326.0
sg14
F0.0
sg15
F14.0
sg16
F272.0
sg17
F0.0
sg18
F0.8019173178925221
sg19
F850000.0
sg20
F954354.0
sg21
F2.0
sg22
F189041.0
sg23
F248546.0
sg24
F2014835.0
sg25
F211264100000.0
sg26
F765313.0
sg27
F0.19808268210747793
ssS'SUNDE MARTIN'
p62
(dp63
g3
F2647.0
sg4
F0.0
sg5
F0.0
sg6
I00
sg7
F476451.0
sg8
S'marty.sunde@enron.com'
p64
sg10
F37.0
sg11
F0.0
sg12
F0.0
sg13
F2565.0
sg14
F0.0
sg15
F38.0
sg16
F111122.0
sg17
F0.0
sg18
F0.0
sg19
F700000.0
sg20
F698920.0
sg21
F13.0
sg22
F698920.0
sg23
F257486.0
sg24
F1545059.0
sg25
F180240200000.0
sg26
F0.0
sg27
F1.0
ssS'GIBBS DANA R'
p65
(dp66
g3
F169.0
sg4
F504610.0
sg5
F0.0
sg6
I00
sg7
F461912.0
sg8
S'dana.gibbs@enron.com'
p67
sg10
F0.0
sg11
F0.0
sg12
F0.0
sg13
F23.0
sg14
F0.0
sg15
F12.0
sg16
F0.0
sg17
F0.0
sg18
F1.0
sg19
F0.0
sg20
F2218275.0
sg21
F0.0
sg22
F0.0
sg23
F0.0
sg24
F966522.0
sg25
F0.0
sg26
F2218275.0
sg27
F0.0
ssS'LOWRY CHARLES P'
p68
(dp69
g3
F0.0
sg4
F0.0
sg5
F0.0
sg6
I00
sg7
F0.0
sg8
F0.0
sg10
F0.0
sg11
F0.0
sg12
F-153686.0
sg13
F0.0
sg14
F0.0
sg15
F0.0
sg16
F0.0
sg17
F0.0
sg18
F1.0
sg19
F0.0
sg20
F372205.0
sg21
F0.0
sg22
F153686.0
sg23
F0.0
sg24
F0.0
sg25
F0.0
sg26
F372205.0
sg27
F0.41290686584006125
ssS'COLWELL WESLEY'
p70
(dp71
g3
F1758.0
sg4
F27610.0
sg5
F16514.0
sg6
I01
sg7
F0.0
sg8
S'wes.colwell@enron.com'
p72
sg10
F240.0
sg11
F-144062.0
sg12
F0.0
sg13
F1132.0
sg14
F0.0
sg15
F40.0
sg16
F101740.0
sg17
F0.0
sg18
F0.0
sg19
F1200000.0
sg20
F698242.0
sg21
F11.0
sg22
F698242.0
sg23
F288542.0
sg24
F1490344.0
sg25
F346250400000.0
sg26
F0.0
sg27
F1.0
ssS'MULLER MARK S'
p73
(dp74
g3
F136.0
sg4
F842924.0
sg5
F0.0
sg6
I00
sg7
F1725545.0
sg8
S's..muller@enron.com'
p75
sg10
F12.0
sg11
F-719000.0
sg12
F0.0
sg13
F114.0
sg14
F0.0
sg15
F16.0
sg16
F947.0
sg17
F0.0
sg18
F0.7455422176549636
sg19
F1100000.0
sg20
F1416848.0
sg21
F0.0
sg22
F360528.0
sg23
F251654.0
sg24
F3202070.0
sg25
F276819400000.0
sg26
F1056320.0
sg27
F0.2544577823450363
ssS'JACKSON CHARLENE R'
p76
(dp77
g3
F258.0
sg4
F0.0
sg5
F10181.0
sg6
I00
sg7
F0.0
sg8
S'charlene.jackson@enron.com'
p78
sg10
F25.0
sg11
F0.0
sg12
F0.0
sg13
F117.0
sg14
F0.0
sg15
F56.0
sg16
F2435.0
sg17
F0.0
sg18
F0.25500079230021977
sg19
F250000.0
sg20
F725735.0
sg21
F19.0
sg22
F540672.0
sg23
F288558.0
sg24
F551174.0
sg25
F72139500000.0
sg26
F185063.0
sg27
F0.7449992076997802
ssS'WESTFAHL RICHARD K'
p79
(dp80
g3
F0.0
sg4
F0.0
sg5
F51870.0
sg6
I00
sg7
F256191.0
sg8
S'dick.westfahl@enron.com'
p81
sg10
F0.0
sg11
F-10800.0
sg12
F0.0
sg13
F0.0
sg14
F0.0
sg15
F0.0
sg16
F401130.0
sg17
F0.0
sg18
F0.0
sg19
F0.0
sg20
F384930.0
sg21
F0.0
sg22
F384930.0
sg23
F63744.0
sg24
F762135.0
sg25
F0.0
sg26
F0.0
sg27
F1.0
ssS'WALTERS GARETH W'
p82
(dp83
g3
F0.0
sg4
F53625.0
sg5
F33785.0
sg6
I00
sg7
F0.0
sg8
F0.0
sg10
F0.0
sg11
F0.0
sg12
F0.0
sg13
F0.0
sg14
F0.0
sg15
F0.0
sg16
F0.0
sg17
F0.0
sg18
F1.0
sg19
F0.0
sg20
F1030329.0
sg21
F0.0
sg22
F0.0
sg23
F0.0
sg24
F87410.0
sg25
F0.0
sg26
F1030329.0
sg27
F0.0
ssS'WALLS JR ROBERT H'
p84
(dp85
g3
F671.0
sg4
F0.0
sg5
F50936.0
sg6
I00
sg7
F540751.0
sg8
S'rob.walls@enron.com'
p86
sg10
F17.0
sg11
F0.0
sg12
F0.0
sg13
F215.0
sg14
F0.0
sg15
F146.0
sg16
F2.0
sg17
F0.0
sg18
F0.7368276335790643
sg19
F850000.0
sg20
F5898997.0
sg21
F0.0
sg22
F1552453.0
sg23
F357091.0
sg24
F1798780.0
sg25
F303527350000.0
sg26
F4346544.0
sg27
F0.2631723664209356
ssS'KITCHEN LOUISE'
p87
(dp88
g3
F8305.0
sg4
F0.0
sg5
F5774.0
sg6
I00
sg7
F0.0
sg8
S'louise.kitchen@enron.com'
p89
sg10
F251.0
sg11
F0.0
sg12
F0.0
sg13
F3669.0
sg14
F0.0
sg15
F1728.0
sg16
F93925.0
sg17
F0.0
sg18
F0.14811849918577044
sg19
F3100000.0
sg20
F547143.0
sg21
F194.0
sg22
F466101.0
sg23
F271442.0
sg24
F3471141.0
sg25
F841470200000.0
sg26
F81042.0
sg27
F0.8518815008142295
ssS'CHAN RONNIE'
p90
(dp91
g3
F0.0
sg4
F0.0
sg5
F0.0
sg6
I00
sg7
F0.0
sg8
F0.0
sg10
F0.0
sg11
F-98784.0
sg12
F-32460.0
sg13
F0.0
sg14
F0.0
sg15
F0.0
sg16
F0.0
sg17
F98784.0
sg18
F0.0
sg19
F0.0
sg20
F0.0
sg21
F0.0
sg22
F32460.0
sg23
F0.0
sg24
F0.0
sg25
F0.0
sg26
F0.0
sg27
F0.0
ssS'BELFER ROBERT'
p92
(dp93
g3
F0.0
sg4
F-102500.0
sg5
F0.0
sg6
I00
sg7
F0.0
sg8
F0.0
sg10
F0.0
sg11
F0.0
sg12
F44093.0
sg13
F0.0
sg14
F0.0
sg15
F0.0
sg16
F0.0
sg17
F3285.0
sg18
F-0.07450162157258522
sg19
F0.0
sg20
F-44093.0
sg21
F0.0
sg22
F0.0
sg23
F0.0
sg24
F102500.0
sg25
F0.0
sg26
F3285.0
sg27
F-0.0
ssS'SHANKMAN JEFFREY A'
p94
(dp95
g3
F3221.0
sg4
F0.0
sg5
F178979.0
sg6
I00
sg7
F554422.0
sg8
S'jeffrey.shankman@enron.com'
p96
sg10
F94.0
sg11
F0.0
sg12
F0.0
sg13
F1730.0
sg14
F0.0
sg15
F2681.0
sg16
F1191.0
sg17
F0.0
sg18
F0.6958849633331483
sg19
F2000000.0
sg20
F2072035.0
sg21
F83.0
sg22
F630137.0
sg23
F304110.0
sg24
F3038702.0
sg25
F608220000000.0
sg26
F1441898.0
sg27
F0.3041150366668517
ssS'WODRASKA JOHN'
p97
(dp98
g3
F0.0
sg4
F0.0
sg5
F0.0
sg6
I00
sg7
F0.0
sg8
S'john.wodraska@enron.com'
p99
sg10
F0.0
sg11
F0.0
sg12
F0.0
sg13
F0.0
sg14
F0.0
sg15
F0.0
sg16
F189583.0
sg17
F0.0
sg18
F0.0
sg19
F0.0
sg20
F0.0
sg21
F0.0
sg22
F0.0
sg23
F0.0
sg24
F189583.0
sg25
F0.0
sg26
F0.0
sg27
F0.0
ssS'BERGSIEKER RICHARD P'
p100
(dp101
g3
F383.0
sg4
F0.0
sg5
F59175.0
sg6
I00
sg7
F180250.0
sg8
S'rick.bergsieker@enron.com'
p102
sg10
F4.0
sg11
F-485813.0
sg12
F0.0
sg13
F233.0
sg14
F0.0
sg15
F59.0
sg16
F427316.0
sg17
F0.0
sg18
F0.0
sg19
F250000.0
sg20
F659249.0
sg21
F0.0
sg22
F659249.0
sg23
F187922.0
sg24
F618850.0
sg25
F46980500000.0
sg26
F0.0
sg27
F1.0
ssS'URQUHART JOHN A'
p103
(dp104
g3
F0.0
sg4
F0.0
sg5
F228656.0
sg6
I00
sg7
F0.0
sg8
F0.0
sg10
F0.0
sg11
F-36666.0
sg12
F0.0
sg13
F0.0
sg14
F0.0
sg15
F0.0
sg16
F0.0
sg17
F36666.0
sg18
F0.0
sg19
F0.0
sg20
F0.0
sg21
F0.0
sg22
F0.0
sg23
F0.0
sg24
F228656.0
sg25
F0.0
sg26
F0.0
sg27
F0.0
ssS'BIBI PHILIPPE A'
p105
(dp106
g3
F1607.0
sg4
F0.0
sg5
F38559.0
sg6
I00
sg7
F369721.0
sg8
S'philippe.bibi@enron.com'
p107
sg10
F23.0
sg11
F0.0
sg12
F0.0
sg13
F1336.0
sg14
F0.0
sg15
F40.0
sg16
F425688.0
sg17
F0.0
sg18
F0.7949459165122768
sg19
F1000000.0
sg20
F1843816.0
sg21
F8.0
sg22
F378082.0
sg23
F213625.0
sg24
F2047593.0
sg25
F213625000000.0
sg26
F1465734.0
sg27
F0.20505408348772328
ssS'RIEKER PAULA H'
p108
(dp109
g3
F1328.0
sg4
F214678.0
sg5
F33271.0
sg6
I01
sg7
F0.0
sg8
S'paula.rieker@enron.com'
p110
sg10
F35.0
sg11
F-100000.0
sg12
F0.0
sg13
F1258.0
sg14
F0.0
sg15
F82.0
sg16
F1950.0
sg17
F0.0
sg18
F0.8521804566918219
sg19
F700000.0
sg20
F1918887.0
sg21
F48.0
sg22
F283649.0
sg23
F249201.0
sg24
F1099100.0
sg25
F174440700000.0
sg26
F1635238.0
sg27
F0.14781954330817812
ssS'WHALEY DAVID A'
p111
(dp112
g3
F0.0
sg4
F0.0
sg5
F0.0
sg6
I00
sg7
F0.0
sg8
F0.0
sg10
F0.0
sg11
F0.0
sg12
F0.0
sg13
F0.0
sg14
F0.0
sg15
F0.0
sg16
F0.0
sg17
F0.0
sg18
F1.0
sg19
F0.0
sg20
F98718.0
sg21
F0.0
sg22
F0.0
sg23
F0.0
sg24
F0.0
sg25
F0.0
sg26
F98718.0
sg27
F0.0
ssS'BECK SALLY W'
p113
(dp114
g3
F7315.0
sg4
F0.0
sg5
F37172.0
sg6
I00
sg7
F0.0
sg8
S'sally.beck@enron.com'
p115
sg10
F144.0
sg11
F0.0
sg12
F0.0
sg13
F2639.0
sg14
F0.0
sg15
F4343.0
sg16
F566.0
sg17
F0.0
sg18
F0.0
sg19
F700000.0
sg20
F126027.0
sg21
F386.0
sg22
F126027.0
sg23
F231330.0
sg24
F969068.0
sg25
F161931000000.0
sg26
F0.0
sg27
F1.0
ssS'HAUG DAVID L'
p116
(dp117
g3
F573.0
sg4
F0.0
sg5
F475.0
sg6
I00
sg7
F0.0
sg8
S'david.haug@enron.com'
p118
sg10
F4.0
sg11
F0.0
sg12
F0.0
sg13
F471.0
sg14
F0.0
sg15
F19.0
sg16
F0.0
sg17
F0.0
sg18
F0.0
sg19
F0.0
sg20
F2217299.0
sg21
F7.0
sg22
F2217299.0
sg23
F0.0
sg24
F475.0
sg25
F0.0
sg26
F0.0
sg27
F1.0
ssS'ECHOLS JOHN B'
p119
(dp120
g3
F0.0
sg4
F0.0
sg5
F21530.0
sg6
I00
sg7
F2234774.0
sg8
S'john.echols@enron.com'
p121
sg10
F0.0
sg11
F0.0
sg12
F0.0
sg13
F0.0
sg14
F0.0
sg15
F0.0
sg16
F53775.0
sg17
F0.0
sg18
F0.5961081966140735
sg19
F200000.0
sg20
F1008941.0
sg21
F0.0
sg22
F407503.0
sg23
F182245.0
sg24
F2692324.0
sg25
F36449000000.0
sg26
F601438.0
sg27
F0.40389180338592645
ssS'MENDELSOHN JOHN'
p122
(dp123
g3
F0.0
sg4
F0.0
sg5
F148.0
sg6
I00
sg7
F0.0
sg8
F0.0
sg10
F0.0
sg11
F-103750.0
sg12
F0.0
sg13
F0.0
sg14
F0.0
sg15
F0.0
sg16
F0.0
sg17
F103750.0
sg18
F0.0
sg19
F0.0
sg20
F0.0
sg21
F0.0
sg22
F0.0
sg23
F0.0
sg24
F148.0
sg25
F0.0
sg26
F0.0
sg27
F0.0
ssS'HICKERSON GARY J'
p124
(dp125
g3
F1320.0
sg4
F0.0
sg5
F98849.0
sg6
I00
sg7
F69223.0
sg8
S'gary.hickerson@enron.com'
p126
sg10
F40.0
sg11
F0.0
sg12
F0.0
sg13
F900.0
sg14
F0.0
sg15
F27.0
sg16
F1936.0
sg17
F0.0
sg18
F0.0
sg19
F1700000.0
sg20
F441096.0
sg21
F1.0
sg22
F441096.0
sg23
F211788.0
sg24
F2081796.0
sg25
F360039600000.0
sg26
F0.0
sg27
F1.0
ssS'CLINE KENNETH W'
p127
(dp128
g3
F0.0
sg4
F0.0
sg5
F0.0
sg6
I00
sg7
F0.0
sg8
F0.0
sg10
F0.0
sg11
F0.0
sg12
F-472568.0
sg13
F0.0
sg14
F0.0
sg15
F0.0
sg16
F0.0
sg17
F0.0
sg18
F0.0
sg19
F0.0
sg20
F189518.0
sg21
F0.0
sg22
F662086.0
sg23
F0.0
sg24
F0.0
sg25
F0.0
sg26
F0.0
sg27
F3.4935256809379585
ssS'LEWIS RICHARD'
p129
(dp130
g3
F952.0
sg4
F0.0
sg5
F0.0
sg6
I00
sg7
F0.0
sg8
S'richard.lewis@enron.com'
p131
sg10
F10.0
sg11
F0.0
sg12
F0.0
sg13
F739.0
sg14
F0.0
sg15
F26.0
sg16
F0.0
sg17
F0.0
sg18
F1.0
sg19
F0.0
sg20
F850477.0
sg21
F0.0
sg22
F0.0
sg23
F0.0
sg24
F0.0
sg25
F0.0
sg26
F850477.0
sg27
F0.0
ssS'HAYES ROBERT E'
p132
(dp133
g3
F504.0
sg4
F7961.0
sg5
F0.0
sg6
I00
sg7
F0.0
sg8
S'robert.hayes@enron.com'
p134
sg10
F16.0
sg11
F0.0
sg12
F0.0
sg13
F50.0
sg14
F0.0
sg15
F12.0
sg16
F0.0
sg17
F0.0
sg18
F0.0
sg19
F0.0
sg20
F151418.0
sg21
F0.0
sg22
F151418.0
sg23
F0.0
sg24
F7961.0
sg25
F0.0
sg26
F0.0
sg27
F1.0
ssS'KOPPER MICHAEL J'
p135
(dp136
g3
F0.0
sg4
F0.0
sg5
F118134.0
sg6
I01
sg7
F602671.0
sg8
S'michael.kopper@enron.com'
p137
sg10
F0.0
sg11
F0.0
sg12
F0.0
sg13
F0.0
sg14
F0.0
sg15
F0.0
sg16
F907502.0
sg17
F0.0
sg18
F0.0
sg19
F800000.0
sg20
F985032.0
sg21
F0.0
sg22
F985032.0
sg23
F224305.0
sg24
F2652612.0
sg25
F179444000000.0
sg26
F0.0
sg27
F1.0
ssS'LEFF DANIEL P'
p138
(dp139
g3
F2822.0
sg4
F0.0
sg5
F0.0
sg6
I00
sg7
F1387399.0
sg8
S'dan.leff@enron.com'
p140
sg10
F67.0
sg11
F0.0
sg12
F0.0
sg13
F2672.0
sg14
F0.0
sg15
F63.0
sg16
F3083.0
sg17
F0.0
sg18
F0.0
sg19
F1000000.0
sg20
F360528.0
sg21
F14.0
sg22
F360528.0
sg23
F273746.0
sg24
F2664228.0
sg25
F273746000000.0
sg26
F0.0
sg27
F1.0
ssS'LAVORATO JOHN J'
p141
(dp142
g3
F7259.0
sg4
F0.0
sg5
F49537.0
sg6
I00
sg7
F2035380.0
sg8
S'john.lavorato@enron.com'
p143
sg10
F528.0
sg11
F0.0
sg12
F0.0
sg13
F3962.0
sg14
F0.0
sg15
F2585.0
sg16
F1552.0
sg17
F0.0
sg18
F0.80489241252034
sg19
F8000000.0
sg20
F5167144.0
sg21
F411.0
sg22
F1008149.0
sg23
F339288.0
sg24
F10425757.0
sg25
F2714304000000.0
sg26
F4158995.0
sg27
F0.19510758747965995
ssS'BERBERIAN DAVID'
p144
(dp145
g3
F0.0
sg4
F0.0
sg5
F11892.0
sg6
I00
sg7
F0.0
sg8
S'david.berberian@enron.com'
p146
sg10
F0.0
sg11
F0.0
sg12
F0.0
sg13
F0.0
sg14
F0.0
sg15
F0.0
sg16
F0.0
sg17
F0.0
sg18
F0.6514218708895034
sg19
F0.0
sg20
F2493616.0
sg21
F0.0
sg22
F869220.0
sg23
F216582.0
sg24
F228474.0
sg25
F0.0
sg26
F1624396.0
sg27
F0.34857812911049657
ssS'DETMERING TIMOTHY J'
p147
(dp148
g3
F0.0
sg4
F875307.0
sg5
F52255.0
sg6
I00
sg7
F415657.0
sg8
S'timothy.detmering@enron.com'
p149
sg10
F0.0
sg11
F-775241.0
sg12
F-315068.0
sg13
F0.0
sg14
F0.0
sg15
F0.0
sg16
F1105.0
sg17
F0.0
sg18
F1.0
sg19
F425000.0
sg20
F2027865.0
sg21
F0.0
sg22
F315068.0
sg23
F210500.0
sg24
F1204583.0
sg25
F89462500000.0
sg26
F2027865.0
sg27
F0.15536931699102258
ssS'WAKEHAM JOHN'
p150
(dp151
g3
F0.0
sg4
F0.0
sg5
F103773.0
sg6
I00
sg7
F0.0
sg8
F0.0
sg10
F0.0
sg11
F0.0
sg12
F0.0
sg13
F0.0
sg14
F0.0
sg15
F0.0
sg16
F0.0
sg17
F109298.0
sg18
F0.0
sg19
F0.0
sg20
F0.0
sg21
F0.0
sg22
F0.0
sg23
F0.0
sg24
F213071.0
sg25
F0.0
sg26
F0.0
sg27
F0.0
ssS'POWERS WILLIAM'
p152
(dp153
g3
F653.0
sg4
F0.0
sg5
F0.0
sg6
I00
sg7
F0.0
sg8
S'ken.powers@enron.com'
p154
sg10
F0.0
sg11
F-17500.0
sg12
F0.0
sg13
F12.0
sg14
F0.0
sg15
F26.0
sg16
F0.0
sg17
F17500.0
sg18
F0.0
sg19
F0.0
sg20
F0.0
sg21
F0.0
sg22
F0.0
sg23
F0.0
sg24
F0.0
sg25
F0.0
sg26
F0.0
sg27
F0.0
ssS'GOLD JOSEPH'
p155
(dp156
g3
F0.0
sg4
F0.0
sg5
F0.0
sg6
I00
sg7
F304805.0
sg8
S'joe.gold@enron.com'
p157
sg10
F0.0
sg11
F0.0
sg12
F0.0
sg13
F0.0
sg14
F0.0
sg15
F0.0
sg16
F819288.0
sg17
F0.0
sg18
F0.4973900737342627
sg19
F750000.0
sg20
F877611.0
sg21
F0.0
sg22
F441096.0
sg23
F272880.0
sg24
F2146973.0
sg25
F204660000000.0
sg26
F436515.0
sg27
F0.5026099262657373
ssS'BANNANTINE JAMES M'
p158
(dp159
g3
F566.0
sg4
F0.0
sg5
F56301.0
sg6
I00
sg7
F0.0
sg8
S'james.bannantine@enron.com'
p160
sg10
F39.0
sg11
F-5104.0
sg12
F-560222.0
sg13
F465.0
sg14
F0.0
sg15
F29.0
sg16
F864523.0
sg17
F0.0
sg18
F0.7716538631639595
sg19
F0.0
sg20
F5243487.0
sg21
F0.0
sg22
F1757552.0
sg23
F477.0
sg24
F916197.0
sg25
F0.0
sg26
F4046157.0
sg27
F0.33518763372541976
ssS'DUNCAN JOHN H'
p161
(dp162
g3
F0.0
sg4
F0.0
sg5
F0.0
sg6
I00
sg7
F0.0
sg8
F0.0
sg10
F0.0
sg11
F-25000.0
sg12
F0.0
sg13
F0.0
sg14
F0.0
sg15
F0.0
sg16
F0.0
sg17
F102492.0
sg18
F1.0
sg19
F0.0
sg20
F371750.0
sg21
F0.0
sg22
F0.0
sg23
F0.0
sg24
F77492.0
sg25
F0.0
sg26
F371750.0
sg27
F0.0
ssS'SHAPIRO RICHARD S'
p163
(dp164
g3
F15149.0
sg4
F0.0
sg5
F137767.0
sg6
I00
sg7
F0.0
sg8
S'richard.shapiro@enron.com'
p165
sg10
F74.0
sg11
F0.0
sg12
F0.0
sg13
F4527.0
sg14
F0.0
sg15
F1215.0
sg16
F705.0
sg17
F0.0
sg18
F0.6158423345062467
sg19
F650000.0
sg20
F987001.0
sg21
F65.0
sg22
F379164.0
sg23
F269076.0
sg24
F1057548.0
sg25
F174899400000.0
sg26
F607837.0
sg27
F0.3841576654937533
ssS'SHERRIFF JOHN R'
p166
(dp167
g3
F3187.0
sg4
F0.0
sg5
F0.0
sg6
I00
sg7
F554422.0
sg8
S'john.sherriff@enron.com'
p168
sg10
F28.0
sg11
F0.0
sg12
F0.0
sg13
F2103.0
sg14
F0.0
sg15
F92.0
sg16
F1852186.0
sg17
F0.0
sg18
F0.5866310512492562
sg19
F1500000.0
sg20
F3128982.0
sg21
F23.0
sg22
F1293424.0
sg23
F428780.0
sg24
F4335388.0
sg25
F643170000000.0
sg26
F1835558.0
sg27
F0.41336894875074387
ssS'SHELBY REX'
p169
(dp170
g3
F225.0
sg4
F0.0
sg5
F22884.0
sg6
I01
sg7
F0.0
sg8
S'rex.shelby@enron.com'
p171
sg10
F13.0
sg11
F-4167.0
sg12
F0.0
sg13
F91.0
sg14
F0.0
sg15
F39.0
sg16
F1573324.0
sg17
F0.0
sg18
F0.6514218708895034
sg19
F200000.0
sg20
F2493616.0
sg21
F14.0
sg22
F869220.0
sg23
F211844.0
sg24
F2003885.0
sg25
F42368800000.0
sg26
F1624396.0
sg27
F0.34857812911049657
ssS'LEMAISTRE CHARLES'
p172
(dp173
g3
F0.0
sg4
F0.0
sg5
F0.0
sg6
I00
sg7
F0.0
sg8
F0.0
sg10
F0.0
sg11
F-25000.0
sg12
F0.0
sg13
F0.0
sg14
F0.0
sg15
F0.0
sg16
F0.0
sg17
F112492.0
sg18
F1.0
sg19
F0.0
sg20
F412878.0
sg21
F0.0
sg22
F0.0
sg23
F0.0
sg24
F87492.0
sg25
F0.0
sg26
F412878.0
sg27
F0.0
ssS'DEFFNER JOSEPH M'
p174
(dp175
g3
F714.0
sg4
F0.0
sg5
F41626.0
sg6
I00
sg7
F335349.0
sg8
S'joseph.deffner@enron.com'
p176
sg10
F115.0
sg11
F0.0
sg12
F0.0
sg13
F552.0
sg14
F0.0
sg15
F74.0
sg16
F25553.0
sg17
F0.0
sg18
F0.10915074963413332
sg19
F600000.0
sg20
F159211.0
sg21
F4.0
sg22
F141833.0
sg23
F206121.0
sg24
F1208649.0
sg25
F123672600000.0
sg26
F17378.0
sg27
F0.8908492503658667
ssS'KISHKILL JOSEPH G'
p177
(dp178
g3
F0.0
sg4
F0.0
sg5
F116335.0
sg6
I00
sg7
F0.0
sg8
S'joe.kishkill@enron.com'
p179
sg10
F0.0
sg11
F-51042.0
sg12
F0.0
sg13
F0.0
sg14
F0.0
sg15
F0.0
sg16
F465357.0
sg17
F0.0
sg18
F0.0
sg19
F0.0
sg20
F1034346.0
sg21
F0.0
sg22
F1034346.0
sg23
F174246.0
sg24
F704896.0
sg25
F0.0
sg26
F0.0
sg27
F1.0
ssS'WHALLEY LAWRENCE G'
p180
(dp181
g3
F6019.0
sg4
F0.0
sg5
F57838.0
sg6
I00
sg7
F808346.0
sg8
S'greg.whalley@enron.com'
p182
sg10
F186.0
sg11
F0.0
sg12
F0.0
sg13
F3920.0
sg14
F0.0
sg15
F556.0
sg16
F301026.0
sg17
F0.0
sg18
F0.5400371796194098
sg19
F3000000.0
sg20
F6079137.0
sg21
F24.0
sg22
F2796177.0
sg23
F510364.0
sg24
F4677574.0
sg25
F1531092000000.0
sg26
F3282960.0
sg27
F0.4599628203805902
ssS'PIRO JIM'
p183
(dp184
g3
F58.0
sg4
F0.0
sg5
F0.0
sg6
I00
sg7
F0.0
sg8
S'jim.piro@enron.com'
p185
sg10
F0.0
sg11
F0.0
sg12
F0.0
sg13
F3.0
sg14
F0.0
sg15
F16.0
sg16
F0.0
sg17
F0.0
sg18
F0.0
sg19
F0.0
sg20
F47304.0
sg21
F1.0
sg22
F47304.0
sg23
F0.0
sg24
F0.0
sg25
F0.0
sg26
F0.0
sg27
F1.0
ssS'MCCONNELL MICHAEL S'
p186
(dp187
g3
F3329.0
sg4
F0.0
sg5
F81364.0
sg6
I00
sg7
F554422.0
sg8
S'mike.mcconnell@enron.com'
p188
sg10
F92.0
sg11
F0.0
sg12
F0.0
sg13
F2189.0
sg14
F0.0
sg15
F2742.0
sg16
F540.0
sg17
F0.0
sg18
F0.5233356947246603
sg19
F1100000.0
sg20
F3101279.0
sg21
F194.0
sg22
F1478269.0
sg23
F365038.0
sg24
F2101364.0
sg25
F401541800000.0
sg26
F1623010.0
sg27
F0.47666430527533965
ssS'DELAINEY DAVID W'
p189
(dp190
g3
F3093.0
sg4
F0.0
sg5
F86174.0
sg6
I01
sg7
F1294981.0
sg8
S'david.delainey@enron.com'
p191
sg10
F66.0
sg11
F0.0
sg12
F0.0
sg13
F2097.0
sg14
F0.0
sg15
F3069.0
sg16
F1661.0
sg17
F0.0
sg18
F0.6339091172441614
sg19
F3000000.0
sg20
F3614261.0
sg21
F609.0
sg22
F1323148.0
sg23
F365163.0
sg24
F4747979.0
sg25
F1095489000000.0
sg26
F2291113.0
sg27
F0.3660908827558386
ssS'SULLIVAN-SHAKLOVITZ COLLEEN'
p192
(dp193
g3
F0.0
sg4
F181993.0
sg5
F0.0
sg6
I00
sg7
F554422.0
sg8
F0.0
sg10
F0.0
sg11
F0.0
sg12
F0.0
sg13
F0.0
sg14
F0.0
sg15
F0.0
sg16
F162.0
sg17
F0.0
sg18
F1.0
sg19
F100000.0
sg20
F1362375.0
sg21
F0.0
sg22
F0.0
sg23
F162779.0
sg24
F999356.0
sg25
F16277900000.0
sg26
F1362375.0
sg27
F0.0
ssS'WROBEL BRUCE'
p194
(dp195
g3
F0.0
sg4
F0.0
sg5
F0.0
sg6
I00
sg7
F0.0
sg8
F0.0
sg10
F0.0
sg11
F0.0
sg12
F0.0
sg13
F0.0
sg14
F0.0
sg15
F0.0
sg16
F0.0
sg17
F0.0
sg18
F1.0
sg19
F0.0
sg20
F139130.0
sg21
F0.0
sg22
F0.0
sg23
F0.0
sg24
F0.0
sg25
F0.0
sg26
F139130.0
sg27
F0.0
ssS'LINDHOLM TOD A'
p196
(dp197
g3
F0.0
sg4
F204075.0
sg5
F57727.0
sg6
I00
sg7
F175000.0
sg8
S'tod.lindholm@enron.com'
p198
sg10
F0.0
sg11
F0.0
sg12
F0.0
sg13
F0.0
sg14
F0.0
sg15
F0.0
sg16
F2630.0
sg17
F0.0
sg18
F0.8319804008083003
sg19
F200000.0
sg20
F3064208.0
sg21
F0.0
sg22
F514847.0
sg23
F236457.0
sg24
F875889.0
sg25
F47291400000.0
sg26
F2549361.0
sg27
F0.1680195991916998
ssS'MEYER JEROME J'
p199
(dp200
g3
F0.0
sg4
F0.0
sg5
F2151.0
sg6
I00
sg7
F0.0
sg8
F0.0
sg10
F0.0
sg11
F-38346.0
sg12
F0.0
sg13
F0.0
sg14
F0.0
sg15
F0.0
sg16
F0.0
sg17
F38346.0
sg18
F0.0
sg19
F0.0
sg20
F0.0
sg21
F0.0
sg22
F0.0
sg23
F0.0
sg24
F2151.0
sg25
F0.0
sg26
F0.0
sg27
F0.0
ssS'LAY KENNETH L'
p201
(dp202
g3
F4273.0
sg4
F202911.0
sg5
F99832.0
sg6
I01
sg7
F3600000.0
sg8
S'kenneth.lay@enron.com'
p203
sg10
F123.0
sg11
F-300000.0
sg12
F0.0
sg13
F2411.0
sg14
F81525000.0
sg15
F36.0
sg16
F10359729.0
sg17
F0.0
sg18
F0.6994161972212709
sg19
F7000000.0
sg20
F49110078.0
sg21
F16.0
sg22
F14761694.0
sg23
F1072321.0
sg24
F103559793.0
sg25
F7506247000000.0
sg26
F34348384.0
sg27
F0.30058380277872904
ssS'BUTTS ROBERT H'
p204
(dp205
g3
F0.0
sg4
F0.0
sg5
F9410.0
sg6
I00
sg7
F175000.0
sg8
S'bob.butts@enron.com'
p206
sg10
F0.0
sg11
F-75000.0
sg12
F0.0
sg13
F0.0
sg14
F0.0
sg15
F0.0
sg16
F150656.0
sg17
F0.0
sg18
F0.0
sg19
F750000.0
sg20
F417619.0
sg21
F0.0
sg22
F417619.0
sg23
F261516.0
sg24
F1271582.0
sg25
F196137000000.0
sg26
F0.0
sg27
F1.0
ssS'OLSON CINDY K'
p207
(dp208
g3
F1184.0
sg4
F77716.0
sg5
F63791.0
sg6
I00
sg7
F100000.0
sg8
S'cindy.olson@enron.com'
p209
sg10
F20.0
sg11
F0.0
sg12
F0.0
sg13
F856.0
sg14
F0.0
sg15
F52.0
sg16
F972.0
sg17
F0.0
sg18
F0.6279949500587511
sg19
F750000.0
sg20
F2606763.0
sg21
F15.0
sg22
F969729.0
sg23
F329078.0
sg24
F1321557.0
sg25
F246808500000.0
sg26
F1637034.0
sg27
F0.372005049941249
ssS'MCDONALD REBECCA'
p210
(dp211
g3
F894.0
sg4
F0.0
sg5
F0.0
sg6
I00
sg7
F0.0
sg8
S'rebecca.mcdonald@enron.com'
p212
sg10
F54.0
sg11
F0.0
sg12
F0.0
sg13
F720.0
sg14
F0.0
sg15
F13.0
sg16
F0.0
sg17
F0.0
sg18
F0.4477451953036776
sg19
F0.0
sg20
F1691366.0
sg21
F1.0
sg22
F934065.0
sg23
F0.0
sg24
F0.0
sg25
F0.0
sg26
F757301.0
sg27
F0.5522548046963224
ssS'CUMBERLAND MICHAEL S'
p213
(dp214
g3
F0.0
sg4
F0.0
sg5
F22344.0
sg6
I00
sg7
F275000.0
sg8
F0.0
sg10
F0.0
sg11
F0.0
sg12
F0.0
sg13
F0.0
sg14
F0.0
sg15
F0.0
sg16
F713.0
sg17
F0.0
sg18
F0.0
sg19
F325000.0
sg20
F207940.0
sg21
F0.0
sg22
F207940.0
sg23
F184899.0
sg24
F807956.0
sg25
F60092175000.0
sg26
F0.0
sg27
F1.0
ssS'GAHN ROBERT S'
p215
(dp216
g3
F0.0
sg4
F73122.0
sg5
F50080.0
sg6
I00
sg7
F0.0
sg8
F0.0
sg10
F0.0
sg11
F-1042.0
sg12
F0.0
sg13
F0.0
sg14
F0.0
sg15
F0.0
sg16
F76547.0
sg17
F0.0
sg18
F0.2612528914932817
sg19
F509870.0
sg20
F318607.0
sg21
F0.0
sg22
F235370.0
sg23
F192008.0
sg24
F900585.0
sg25
F97899118960.0
sg26
F83237.0
sg27
F0.7387471085067183
ssS'BADUM JAMES P'
p217
(dp218
g3
F0.0
sg4
F178980.0
sg5
F3486.0
sg6
I00
sg7
F0.0
sg8
F0.0
sg10
F0.0
sg11
F0.0
sg12
F0.0
sg13
F0.0
sg14
F0.0
sg15
F0.0
sg16
F0.0
sg17
F0.0
sg18
F1.0
sg19
F0.0
sg20
F257817.0
sg21
F0.0
sg22
F0.0
sg23
F0.0
sg24
F182466.0
sg25
F0.0
sg26
F257817.0
sg27
F0.0
ssS'HERMANN ROBERT J'
p219
(dp220
g3
F0.0
sg4
F0.0
sg5
F48357.0
sg6
I00
sg7
F150000.0
sg8
S'robert.hermann@enron.com'
p221
sg10
F0.0
sg11
F-280000.0
sg12
F0.0
sg13
F0.0
sg14
F0.0
sg15
F0.0
sg16
F416441.0
sg17
F0.0
sg18
F0.2806331682960852
sg19
F700000.0
sg20
F668132.0
sg21
F0.0
sg22
F480632.0
sg23
F262663.0
sg24
F1297461.0
sg25
F183864100000.0
sg26
F187500.0
sg27
F0.7193668317039148
ssS'FALLON JAMES B'
p222
(dp223
g3
F1755.0
sg4
F0.0
sg5
F95924.0
sg6
I00
sg7
F374347.0
sg8
S'jim.fallon@enron.com'
p224
sg10
F42.0
sg11
F0.0
sg12
F0.0
sg13
F1604.0
sg14
F0.0
sg15
F75.0
sg16
F401481.0
sg17
F0.0
sg18
F0.40312870996771993
sg19
F2500000.0
sg20
F2332399.0
sg21
F37.0
sg22
F1392142.0
sg23
F304588.0
sg24
F3676340.0
sg25
F761470000000.0
sg26
F940257.0
sg27
F0.5968712900322801
ssS'GATHMANN WILLIAM D'
p225
(dp226
g3
F0.0
sg4
F0.0
sg5
F0.0
sg6
I00
sg7
F0.0
sg8
F0.0
sg10
F0.0
sg11
F0.0
sg12
F-72419.0
sg13
F0.0
sg14
F0.0
sg15
F0.0
sg16
F0.0
sg17
F0.0
sg18
F0.9015123164864087
sg19
F0.0
sg20
F1945360.0
sg21
F0.0
sg22
F264013.0
sg23
F0.0
sg24
F0.0
sg25
F0.0
sg26
F1753766.0
sg27
F0.13571421227947528
ssS'HORTON STANLEY C'
p227
(dp228
g3
F2350.0
sg4
F3131860.0
sg5
F0.0
sg6
I00
sg7
F0.0
sg8
S'stanley.horton@enron.com'
p229
sg10
F44.0
sg11
F0.0
sg12
F0.0
sg13
F1074.0
sg14
F0.0
sg15
F1073.0
sg16
F0.0
sg17
F0.0
sg18
F0.7180407538025821
sg19
F0.0
sg20
F7256648.0
sg21
F15.0
sg22
F2046079.0
sg23
F0.0
sg24
F3131860.0
sg25
F0.0
sg26
F5210569.0
sg27
F0.28195924619741786
ssS'BOWEN JR RAYMOND M'
p230
(dp231
g3
F1858.0
sg4
F0.0
sg5
F65907.0
sg6
I01
sg7
F974293.0
sg8
S'raymond.bowen@enron.com'
p232
sg10
F140.0
sg11
F-833.0
sg12
F0.0
sg13
F1593.0
sg14
F0.0
sg15
F27.0
sg16
F1621.0
sg17
F0.0
sg18
F0.0
sg19
F1350000.0
sg20
F252055.0
sg21
F15.0
sg22
F252055.0
sg23
F278601.0
sg24
F2669589.0
sg25
F376111350000.0
sg26
F0.0
sg27
F1.0
ssS'GILLIS JOHN'
p233
(dp234
g3
F0.0
sg4
F0.0
sg5
F0.0
sg6
I00
sg7
F0.0
sg8
F0.0
sg10
F0.0
sg11
F0.0
sg12
F0.0
sg13
F0.0
sg14
F0.0
sg15
F0.0
sg16
F0.0
sg17
F0.0
sg18
F0.11446620193598861
sg19
F0.0
sg20
F85641.0
sg21
F0.0
sg22
F75838.0
sg23
F0.0
sg24
F0.0
sg25
F0.0
sg26
F9803.0
sg27
F0.8855337980640114
ssS'FITZGERALD JAY L'
p235
(dp236
g3
F936.0
sg4
F0.0
sg5
F23870.0
sg6
I00
sg7
F556416.0
sg8
S'jay.fitzgerald@enron.com'
p237
sg10
F1.0
sg11
F0.0
sg12
F0.0
sg13
F723.0
sg14
F0.0
sg15
F16.0
sg16
F285414.0
sg17
F0.0
sg18
F0.40984841195236227
sg19
F350000.0
sg20
F1621236.0
sg21
F8.0
sg22
F956775.0
sg23
F199157.0
sg24
F1414857.0
sg25
F69704950000.0
sg26
F664461.0
sg27
F0.5901515880476377
ssS'MORAN MICHAEL P'
p238
(dp239
g3
F672.0
sg4
F0.0
sg5
F0.0
sg6
I00
sg7
F0.0
sg8
S'michael.moran@enron.com'
p240
sg10
F0.0
sg11
F0.0
sg12
F0.0
sg13
F127.0
sg14
F0.0
sg15
F19.0
sg16
F0.0
sg17
F0.0
sg18
F0.2692354651557151
sg19
F0.0
sg20
F221141.0
sg21
F0.0
sg22
F161602.0
sg23
F0.0
sg24
F0.0
sg25
F0.0
sg26
F59539.0
sg27
F0.7307645348442848
ssS'REDMOND BRIAN L'
p241
(dp242
g3
F1671.0
sg4
F0.0
sg5
F14689.0
sg6
I00
sg7
F0.0
sg8
S'brian.redmond@enron.com'
p243
sg10
F204.0
sg11
F0.0
sg12
F0.0
sg13
F1063.0
sg14
F0.0
sg15
F221.0
sg16
F0.0
sg17
F0.0
sg18
F0.951676889314051
sg19
F0.0
sg20
F7890324.0
sg21
F49.0
sg22
F381285.0
sg23
F96840.0
sg24
F111529.0
sg25
F0.0
sg26
F7509039.0
sg27
F0.048323110685949015
ssS'BAZELIDES PHILIP J'
p244
(dp245
g3
F0.0
sg4
F684694.0
sg5
F0.0
sg6
I00
sg7
F93750.0
sg8
F0.0
sg10
F0.0
sg11
F0.0
sg12
F0.0
sg13
F0.0
sg14
F0.0
sg15
F0.0
sg16
F874.0
sg17
F0.0
sg18
F1.0
sg19
F0.0
sg20
F1599641.0
sg21
F0.0
sg22
F0.0
sg23
F80818.0
sg24
F860136.0
sg25
F0.0
sg26
F1599641.0
sg27
F0.0
ssS'BELDEN TIMOTHY N'
p246
(dp247
g3
F7991.0
sg4
F2144013.0
sg5
F17355.0
sg6
I01
sg7
F0.0
sg8
S'tim.belden@enron.com'
p248
sg10
F228.0
sg11
F-2334434.0
sg12
F0.0
sg13
F5521.0
sg14
F0.0
sg15
F484.0
sg16
F210698.0
sg17
F0.0
sg18
F0.8581360487258093
sg19
F5249999.0
sg20
F1110705.0
sg21
F108.0
sg22
F157569.0
sg23
F213999.0
sg24
F5501630.0
sg25
F1123494536001.0
sg26
F953136.0
sg27
F0.1418639512741907
ssS'DIMICHELE RICHARD G'
p249
(dp250
g3
F0.0
sg4
F0.0
sg5
F35812.0
sg6
I00
sg7
F694862.0
sg8
S'richard.dimichele@enron.com'
p251
sg10
F0.0
sg11
F0.0
sg12
F0.0
sg13
F0.0
sg14
F0.0
sg15
F0.0
sg16
F374689.0
sg17
F0.0
sg18
F0.9848484848484849
sg19
F1000000.0
sg20
F8317782.0
sg21
F0.0
sg22
F126027.0
sg23
F262788.0
sg24
F2368151.0
sg25
F262788000000.0
sg26
F8191755.0
sg27
F0.015151515151515152
ssS'DURAN WILLIAM D'
p252
(dp253
g3
F904.0
sg4
F0.0
sg5
F25785.0
sg6
I00
sg7
F1105218.0
sg8
S'w.duran@enron.com'
p254
sg10
F106.0
sg11
F0.0
sg12
F0.0
sg13
F599.0
sg14
F0.0
sg15
F12.0
sg16
F1568.0
sg17
F0.0
sg18
F0.8847950222742259
sg19
F750000.0
sg20
F1640910.0
sg21
F3.0
sg22
F189041.0
sg23
F210692.0
sg24
F2093263.0
sg25
F158019000000.0
sg26
F1451869.0
sg27
F0.11520497772577411
ssS'THORN TERENCE H'
p255
(dp256
g3
F266.0
sg4
F16586.0
sg5
F46145.0
sg6
I00
sg7
F200000.0
sg8
S'terence.thorn@enron.com'
p257
sg10
F0.0
sg11
F0.0
sg12
F0.0
sg13
F73.0
sg14
F0.0
sg15
F41.0
sg16
F426629.0
sg17
F0.0
sg18
F0.9241727960254025
sg19
F0.0
sg20
F4817796.0
sg21
F0.0
sg22
F365320.0
sg23
F222093.0
sg24
F911453.0
sg25
F0.0
sg26
F4452476.0
sg27
F0.07582720397459751
ssS'FASTOW ANDREW S'
p258
(dp259
g3
F0.0
sg4
F0.0
sg5
F55921.0
sg6
I01
sg7
F1736055.0
sg8
S'andrew.fastow@enron.com'
p260
sg10
F0.0
sg11
F-1386055.0
sg12
F0.0
sg13
F0.0
sg14
F0.0
sg15
F0.0
sg16
F277464.0
sg17
F0.0
sg18
F0.0
sg19
F1300000.0
sg20
F1794412.0
sg21
F0.0
sg22
F1794412.0
sg23
F440698.0
sg24
F2424083.0
sg25
F572907400000.0
sg26
F0.0
sg27
F1.0
ssS'FOY JOE'
p261
(dp262
g3
F57.0
sg4
F181755.0
sg5
F0.0
sg6
I00
sg7
F0.0
sg8
S'tracy.foy@enron.com'
p263
sg10
F0.0
sg11
F0.0
sg12
F0.0
sg13
F2.0
sg14
F0.0
sg15
F13.0
sg16
F0.0
sg17
F0.0
sg18
F1.0
sg19
F0.0
sg20
F343434.0
sg21
F0.0
sg22
F0.0
sg23
F0.0
sg24
F181755.0
sg25
F0.0
sg26
F343434.0
sg27
F0.0
ssS'CALGER CHRISTOPHER F'
p264
(dp265
g3
F2598.0
sg4
F0.0
sg5
F35818.0
sg6
I01
sg7
F375304.0
sg8
S'christopher.calger@enron.com'
p266
sg10
F199.0
sg11
F-262500.0
sg12
F0.0
sg13
F2188.0
sg14
F0.0
sg15
F144.0
sg16
F486.0
sg17
F0.0
sg18
F0.0
sg19
F1250000.0
sg20
F126027.0
sg21
F25.0
sg22
F126027.0
sg23
F240189.0
sg24
F1639297.0
sg25
F300236250000.0
sg26
F0.0
sg27
F1.0
ssS'RICE KENNETH D'
p267
(dp268
g3
F905.0
sg4
F0.0
sg5
F46950.0
sg6
I01
sg7
F1617011.0
sg8
S'ken.rice@enron.com'
p269
sg10
F42.0
sg11
F-3504386.0
sg12
F0.0
sg13
F864.0
sg14
F0.0
sg15
F18.0
sg16
F174839.0
sg17
F0.0
sg18
F0.8780809916753388
sg19
F1750000.0
sg20
F22542539.0
sg21
F4.0
sg22
F2748364.0
sg23
F420636.0
sg24
F505050.0
sg25
F736113000000.0
sg26
F19794175.0
sg27
F0.12191900832466121
ssS'KAMINSKI WINCENTY J'
p270
(dp271
g3
F4607.0
sg4
F0.0
sg5
F83585.0
sg6
I00
sg7
F323466.0
sg8
S'vince.kaminski@enron.com'
p272
sg10
F41.0
sg11
F0.0
sg12
F0.0
sg13
F583.0
sg14
F0.0
sg15
F14368.0
sg16
F4669.0
sg17
F0.0
sg18
F0.8708788703706929
sg19
F400000.0
sg20
F976037.0
sg21
F171.0
sg22
F126027.0
sg23
F275101.0
sg24
F1086821.0
sg25
F110040400000.0
sg26
F850010.0
sg27
F0.12912112962930708
ssS'LOCKHART EUGENE E'
p273
(dp274
g3
F0.0
sg4
F0.0
sg5
F0.0
sg6
I00
sg7
F0.0
sg8
F0.0
sg10
F0.0
sg11
F0.0
sg12
F0.0
sg13
F0.0
sg14
F0.0
sg15
F0.0
sg16
F0.0
sg17
F0.0
sg18
F0.0
sg19
F0.0
sg20
F0.0
sg21
F0.0
sg22
F0.0
sg23
F0.0
sg24
F0.0
sg25
F0.0
sg26
F0.0
sg27
F0.0
ssS'COX DAVID'
p275
(dp276
g3
F102.0
sg4
F0.0
sg5
F27861.0
sg6
I00
sg7
F0.0
sg8
S'chip.cox@enron.com'
p277
sg10
F0.0
sg11
F-41250.0
sg12
F0.0
sg13
F71.0
sg14
F0.0
sg15
F33.0
sg16
F494.0
sg17
F0.0
sg18
F0.23717347311417925
sg19
F800000.0
sg20
F495633.0
sg21
F4.0
sg22
F378082.0
sg23
F314288.0
sg24
F1101393.0
sg25
F251430400000.0
sg26
F117551.0
sg27
F0.7628265268858208
ssS'OVERDYKE JR JERE C'
p278
(dp279
g3
F0.0
sg4
F0.0
sg5
F18834.0
sg6
I00
sg7
F135836.0
sg8
S'jere.overdyke@enron.com'
p280
sg10
F0.0
sg11
F0.0
sg12
F0.0
sg13
F0.0
sg14
F0.0
sg15
F0.0
sg16
F176.0
sg17
F0.0
sg18
F0.7206993163550137
sg19
F0.0
sg20
F7307594.0
sg21
F0.0
sg22
F2041016.0
sg23
F94941.0
sg24
F249787.0
sg25
F0.0
sg26
F5266578.0
sg27
F0.2793006836449863
ssS'PEREIRA PAULO V. FERRAZ'
p281
(dp282
g3
F0.0
sg4
F0.0
sg5
F27942.0
sg6
I00
sg7
F0.0
sg8
F0.0
sg10
F0.0
sg11
F-101250.0
sg12
F0.0
sg13
F0.0
sg14
F0.0
sg15
F0.0
sg16
F0.0
sg17
F101250.0
sg18
F0.0
sg19
F0.0
sg20
F0.0
sg21
F0.0
sg22
F0.0
sg23
F0.0
sg24
F27942.0
sg25
F0.0
sg26
F0.0
sg27
F0.0
ssS'STABLER FRANK'
p283
(dp284
g3
F0.0
sg4
F0.0
sg5
F16514.0
sg6
I00
sg7
F0.0
sg8
S'frank.stabler@enron.com'
p285
sg10
F0.0
sg11
F0.0
sg12
F0.0
sg13
F0.0
sg14
F0.0
sg15
F0.0
sg16
F356071.0
sg17
F0.0
sg18
F0.0
sg19
F500000.0
sg20
F511734.0
sg21
F0.0
sg22
F511734.0
sg23
F239502.0
sg24
F1112087.0
sg25
F119751000000.0
sg26
F0.0
sg27
F1.0
ssS'SKILLING JEFFREY K'
p286
(dp287
g3
F3627.0
sg4
F0.0
sg5
F29336.0
sg6
I01
sg7
F1920000.0
sg8
S'jeff.skilling@enron.com'
p288
sg10
F88.0
sg11
F0.0
sg12
F0.0
sg13
F2042.0
sg14
F0.0
sg15
F108.0
sg16
F22122.0
sg17
F0.0
sg18
F0.7377267561269261
sg19
F5600000.0
sg20
F26093672.0
sg21
F30.0
sg22
F6843672.0
sg23
F1111258.0
sg24
F8682716.0
sg25
F6223044800000.0
sg26
F19250000.0
sg27
F0.2622732438730739
ssS'BLAKE JR. NORMAN P'
p289
(dp290
g3
F0.0
sg4
F0.0
sg5
F1279.0
sg6
I00
sg7
F0.0
sg8
F0.0
sg10
F0.0
sg11
F-113784.0
sg12
F0.0
sg13
F0.0
sg14
F0.0
sg15
F0.0
sg16
F0.0
sg17
F113784.0
sg18
F0.0
sg19
F0.0
sg20
F0.0
sg21
F0.0
sg22
F0.0
sg23
F0.0
sg24
F1279.0
sg25
F0.0
sg26
F0.0
sg27
F0.0
ssS'SHERRICK JEFFREY B'
p291
(dp292
g3
F613.0
sg4
F0.0
sg5
F0.0
sg6
I00
sg7
F0.0
sg8
S'jeffrey.sherrick@enron.com'
p293
sg10
F39.0
sg11
F0.0
sg12
F0.0
sg13
F583.0
sg14
F0.0
sg15
F25.0
sg16
F0.0
sg17
F0.0
sg18
F0.7784414243522942
sg19
F0.0
sg20
F1832468.0
sg21
F18.0
sg22
F405999.0
sg23
F0.0
sg24
F0.0
sg25
F0.0
sg26
F1426469.0
sg27
F0.22155857564770573
ssS'PRENTICE JAMES'
p294
(dp295
g3
F0.0
sg4
F564348.0
sg5
F0.0
sg6
I00
sg7
F0.0
sg8
S'james.prentice@enron.com'
p296
sg10
F0.0
sg11
F0.0
sg12
F0.0
sg13
F0.0
sg14
F0.0
sg15
F0.0
sg16
F0.0
sg17
F0.0
sg18
F0.8093138150204559
sg19
F0.0
sg20
F1095040.0
sg21
F0.0
sg22
F208809.0
sg23
F0.0
sg24
F564348.0
sg25
F0.0
sg26
F886231.0
sg27
F0.19068618497954412
ssS'GRAY RODNEY'
p297
(dp298
g3
F0.0
sg4
F93585.0
sg5
F0.0
sg6
I00
sg7
F365625.0
sg8
F0.0
sg10
F0.0
sg11
F0.0
sg12
F0.0
sg13
F0.0
sg14
F0.0
sg15
F0.0
sg16
F680833.0
sg17
F0.0
sg18
F0.0
sg19
F0.0
sg20
F0.0
sg21
F0.0
sg22
F0.0
sg23
F6615.0
sg24
F1146658.0
sg25
F0.0
sg26
F0.0
sg27
F0.0
ssS'THE TRAVEL AGENCY IN THE PARK'
p299
(dp300
g3
F0.0
sg4
F0.0
sg5
F0.0
sg6
I00
sg7
F0.0
sg8
F0.0
sg10
F0.0
sg11
F0.0
sg12
F0.0
sg13
F0.0
sg14
F0.0
sg15
F0.0
sg16
F362096.0
sg17
F0.0
sg18
F0.0
sg19
F0.0
sg20
F0.0
sg21
F0.0
sg22
F0.0
sg23
F0.0
sg24
F362096.0
sg25
F0.0
sg26
F0.0
sg27
F0.0
ssS'UMANOFF ADAM S'
p301
(dp302
g3
F111.0
sg4
F0.0
sg5
F53122.0
sg6
I00
sg7
F0.0
sg8
S'adam.umanoff@enron.com'
p303
sg10
F12.0
sg11
F0.0
sg12
F0.0
sg13
F41.0
sg14
F0.0
sg15
F18.0
sg16
F0.0
sg17
F0.0
sg18
F0.0
sg19
F788750.0
sg20
F0.0
sg21
F0.0
sg22
F0.0
sg23
F288589.0
sg24
F1130461.0
sg25
F227624573750.0
sg26
F0.0
sg27
F0.0
ssS'KEAN STEVEN J'
p304
(dp305
g3
F12754.0
sg4
F0.0
sg5
F41953.0
sg6
I00
sg7
F300000.0
sg8
S'steven.kean@enron.com'
p306
sg10
F140.0
sg11
F0.0
sg12
F0.0
sg13
F3639.0
sg14
F0.0
sg15
F6759.0
sg16
F1231.0
sg17
F0.0
sg18
F0.32859370109603386
sg19
F1000000.0
sg20
F6153642.0
sg21
F387.0
sg22
F4131594.0
sg23
F404338.0
sg24
F1747522.0
sg25
F404338000000.0
sg26
F2022048.0
sg27
F0.6714062989039662
ssS'FOWLER PEGGY'
p307
(dp308
g3
F517.0
sg4
F0.0
sg5
F0.0
sg6
I00
sg7
F0.0
sg8
S'kulvinder.fowler@enron.com'
p309
sg10
F0.0
sg11
F0.0
sg12
F0.0
sg13
F10.0
sg14
F0.0
sg15
F36.0
sg16
F0.0
sg17
F0.0
sg18
F0.7027878528057863
sg19
F0.0
sg20
F1884748.0
sg21
F0.0
sg22
F560170.0
sg23
F0.0
sg24
F0.0
sg25
F0.0
sg26
F1324578.0
sg27
F0.29721214719421374
ssS'WASAFF GEORGE'
p310
(dp311
g3
F400.0
sg4
F831299.0
sg5
F0.0
sg6
I00
sg7
F200000.0
sg8
S'george.wasaff@enron.com'
p312
sg10
F22.0
sg11
F-583325.0
sg12
F0.0
sg13
F337.0
sg14
F0.0
sg15
F30.0
sg16
F1425.0
sg17
F0.0
sg18
F0.8112420231790382
sg19
F325000.0
sg20
F2056427.0
sg21
F7.0
sg22
F388167.0
sg23
F259996.0
sg24
F1034395.0
sg25
F84498700000.0
sg26
F1668260.0
sg27
F0.1887579768209618
ssS'WHITE JR THOMAS E'
p313
(dp314
g3
F0.0
sg4
F0.0
sg5
F81353.0
sg6
I00
sg7
F0.0
sg8
S'thomas.white@enron.com'
p315
sg10
F0.0
sg11
F0.0
sg12
F0.0
sg13
F0.0
sg14
F0.0
sg15
F0.0
sg16
F1085463.0
sg17
F0.0
sg18
F0.08564701963923563
sg19
F450000.0
sg20
F15144123.0
sg21
F0.0
sg22
F13847074.0
sg23
F317543.0
sg24
F1934359.0
sg25
F142894350000.0
sg26
F1297049.0
sg27
F0.9143529803607644
ssS'CHRISTODOULOU DIOMEDES'
p316
(dp317
g3
F0.0
sg4
F0.0
sg5
F0.0
sg6
I00
sg7
F0.0
sg8
S'diomedes.christodoulou@enron.com'
p318
sg10
F0.0
sg11
F0.0
sg12
F0.0
sg13
F0.0
sg14
F0.0
sg15
F0.0
sg16
F0.0
sg17
F0.0
sg18
F0.8435755201027989
sg19
F0.0
sg20
F6077885.0
sg21
F0.0
sg22
F950730.0
sg23
F0.0
sg24
F0.0
sg25
F0.0
sg26
F5127155.0
sg27
F0.15642447989720107
ssS'ALLEN PHILLIP K'
p319
(dp320
g3
F2902.0
sg4
F2869717.0
sg5
F13868.0
sg6
I00
sg7
F304805.0
sg8
S'phillip.allen@enron.com'
p321
sg10
F47.0
sg11
F-3081055.0
sg12
F-126027.0
sg13
F1407.0
sg14
F0.0
sg15
F2195.0
sg16
F152.0
sg17
F0.0
sg18
F1.0
sg19
F4175000.0
sg20
F1729541.0
sg21
F65.0
sg22
F126027.0
sg23
F201955.0
sg24
F4484442.0
sg25
F843162125000.0
sg26
F1729541.0
sg27
F0.07286730988163911
ssS'SHARP VICTORIA T'
p322
(dp323
g3
F3136.0
sg4
F187469.0
sg5
F116337.0
sg6
I00
sg7
F422158.0
sg8
S'vicki.sharp@enron.com'
p324
sg10
F24.0
sg11
F0.0
sg12
F0.0
sg13
F2477.0
sg14
F0.0
sg15
F136.0
sg16
F2401.0
sg17
F0.0
sg18
F0.5688170867939191
sg19
F600000.0
sg20
F494136.0
sg21
F6.0
sg22
F213063.0
sg23
F248146.0
sg24
F1576511.0
sg25
F148887600000.0
sg26
F281073.0
sg27
F0.43118291320608093
ssS'JAEDICKE ROBERT'
p325
(dp326
g3
F0.0
sg4
F0.0
sg5
F0.0
sg6
I00
sg7
F0.0
sg8
F0.0
sg10
F0.0
sg11
F-25000.0
sg12
F-44093.0
sg13
F0.0
sg14
F0.0
sg15
F0.0
sg16
F0.0
sg17
F108750.0
sg18
F1.0
sg19
F0.0
sg20
F431750.0
sg21
F0.0
sg22
F44093.0
sg23
F0.0
sg24
F83750.0
sg25
F0.0
sg26
F431750.0
sg27
F0.10212623045744065
ssS'WINOKUR JR. HERBERT S'
p327
(dp328
g3
F0.0
sg4
F0.0
sg5
F1413.0
sg6
I00
sg7
F0.0
sg8
F0.0
sg10
F0.0
sg11
F-25000.0
sg12
F0.0
sg13
F0.0
sg14
F0.0
sg15
F0.0
sg16
F0.0
sg17
F108579.0
sg18
F0.0
sg19
F0.0
sg20
F0.0
sg21
F0.0
sg22
F0.0
sg23
F0.0
sg24
F84992.0
sg25
F0.0
sg26
F0.0
sg27
F0.0
ssS'BROWN MICHAEL'
p329
(dp330
g3
F1486.0
sg4
F0.0
sg5
F49288.0
sg6
I00
sg7
F0.0
sg8
S'michael.brown@enron.com'
p331
sg10
F13.0
sg11
F0.0
sg12
F0.0
sg13
F761.0
sg14
F0.0
sg15
F41.0
sg16
F0.0
sg17
F0.0
sg18
F0.0
sg19
F0.0
sg20
F0.0
sg21
F1.0
sg22
F0.0
sg23
F0.0
sg24
F49288.0
sg25
F0.0
sg26
F0.0
sg27
F0.0
ssS'MCCLELLAN GEORGE'
p332
(dp333
g3
F1744.0
sg4
F0.0
sg5
F228763.0
sg6
I00
sg7
F0.0
sg8
S'george.mcclellan@enron.com'
p334
sg10
F52.0
sg11
F-125000.0
sg12
F0.0
sg13
F1469.0
sg14
F0.0
sg15
F49.0
sg16
F51587.0
sg17
F0.0
sg18
F0.534640627686971
sg19
F900000.0
sg20
F947861.0
sg21
F0.0
sg22
F441096.0
sg23
F263413.0
sg24
F1318763.0
sg25
F237071700000.0
sg26
F506765.0
sg27
F0.46535937231302904
ssS'HUGHES JAMES A'
p335
(dp336
g3
F719.0
sg4
F0.0
sg5
F0.0
sg6
I00
sg7
F0.0
sg8
S'james.hughes@enron.com'
p337
sg10
F35.0
sg11
F0.0
sg12
F0.0
sg13
F589.0
sg14
F0.0
sg15
F34.0
sg16
F0.0
sg17
F0.0
sg18
F0.6750447516706992
sg19
F0.0
sg20
F1118394.0
sg21
F5.0
sg22
F363428.0
sg23
F0.0
sg24
F0.0
sg25
F0.0
sg26
F754966.0
sg27
F0.3249552483293008
ssS'REYNOLDS LAWRENCE'
p338
(dp339
g3
F0.0
sg4
F51365.0
sg5
F8409.0
sg6
I00
sg7
F156250.0
sg8
F0.0
sg10
F0.0
sg11
F-200000.0
sg12
F-140264.0
sg13
F0.0
sg14
F0.0
sg15
F0.0
sg16
F202052.0
sg17
F0.0
sg18
F0.9854996256416853
sg19
F100000.0
sg20
F4221891.0
sg21
F0.0
sg22
F201483.0
sg23
F76399.0
sg24
F394475.0
sg25
F7639900000.0
sg26
F4160672.0
sg27
F0.047723401670009956
ssS'PICKERING MARK R'
p340
(dp341
g3
F898.0
sg4
F0.0
sg5
F31653.0
sg6
I00
sg7
F0.0
sg8
S'mark.pickering@enron.com'
p342
sg10
F7.0
sg11
F0.0
sg12
F0.0
sg13
F728.0
sg14
F400000.0
sg15
F67.0
sg16
F0.0
sg17
F0.0
sg18
F1.0
sg19
F300000.0
sg20
F28798.0
sg21
F0.0
sg22
F0.0
sg23
F655037.0
sg24
F1386690.0
sg25
F196511100000.0
sg26
F28798.0
sg27
F0.0
ssS'BHATNAGAR SANJAY'
p343
(dp344
g3
F523.0
sg4
F0.0
sg5
F0.0
sg6
I00
sg7
F0.0
sg8
S'sanjay.bhatnagar@enron.com'
p345
sg10
F0.0
sg11
F0.0
sg12
F15456290.0
sg13
F463.0
sg14
F0.0
sg15
F29.0
sg16
F137864.0
sg17
F137864.0
sg18
F0.0
sg19
F0.0
sg20
F0.0
sg21
F1.0
sg22
F-2604490.0
sg23
F0.0
sg24
F15456290.0
sg25
F0.0
sg26
F2604490.0
sg27
F0.0
ssS'CARTER REBECCA C'
p346
(dp347
g3
F312.0
sg4
F0.0
sg5
F0.0
sg6
I00
sg7
F75000.0
sg8
S'rebecca.carter@enron.com'
p348
sg10
F29.0
sg11
F-159792.0
sg12
F-307301.0
sg13
F196.0
sg14
F0.0
sg15
F15.0
sg16
F540.0
sg17
F0.0
sg18
F0.0
sg19
F300000.0
sg20
F0.0
sg21
F7.0
sg22
F307301.0
sg23
F261809.0
sg24
F477557.0
sg25
F78542700000.0
sg26
F0.0
sg27
F0.0
ssS'BUCHANAN HAROLD G'
p349
(dp350
g3
F1088.0
sg4
F0.0
sg5
F600.0
sg6
I00
sg7
F304805.0
sg8
S'john.buchanan@enron.com'
p351
sg10
F0.0
sg11
F0.0
sg12
F0.0
sg13
F23.0
sg14
F0.0
sg15
F125.0
sg16
F1215.0
sg17
F0.0
sg18
F0.8136618350821336
sg19
F500000.0
sg20
F1014505.0
sg21
F0.0
sg22
F189041.0
sg23
F248017.0
sg24
F1054637.0
sg25
F124008500000.0
sg26
F825464.0
sg27
F0.18633816491786634
ssS'YEAP SOON'
p352
(dp353
g3
F0.0
sg4
F0.0
sg5
F55097.0
sg6
I00
sg7
F0.0
sg8
F0.0
sg10
F0.0
sg11
F0.0
sg12
F0.0
sg13
F0.0
sg14
F0.0
sg15
F0.0
sg16
F0.0
sg17
F0.0
sg18
F1.0
sg19
F0.0
sg20
F192758.0
sg21
F0.0
sg22
F0.0
sg23
F0.0
sg24
F55097.0
sg25
F0.0
sg26
F192758.0
sg27
F0.0
ssS'MURRAY JULIA H'
p354
(dp355
g3
F2192.0
sg4
F0.0
sg5
F57580.0
sg6
I00
sg7
F125000.0
sg8
S'julia.murray@enron.com'
p356
sg10
F11.0
sg11
F0.0
sg12
F0.0
sg13
F395.0
sg14
F0.0
sg15
F45.0
sg16
F330.0
sg17
F0.0
sg18
F0.6702998187329382
sg19
F400000.0
sg20
F597461.0
sg21
F2.0
sg22
F196983.0
sg23
F229284.0
sg24
F812194.0
sg25
F91713600000.0
sg26
F400478.0
sg27
F0.3297001812670618
ssS'GARLAND C KEVIN'
p357
(dp358
g3
F209.0
sg4
F0.0
sg5
F48405.0
sg6
I00
sg7
F375304.0
sg8
S'kevin.garland@enron.com'
p359
sg10
F10.0
sg11
F0.0
sg12
F0.0
sg13
F178.0
sg14
F0.0
sg15
F44.0
sg16
F60814.0
sg17
F0.0
sg18
F0.7099747476156415
sg19
F850000.0
sg20
F896153.0
sg21
F27.0
sg22
F259907.0
sg23
F231946.0
sg24
F1566469.0
sg25
F197154100000.0
sg26
F636246.0
sg27
F0.2900252523843585
ssS'DODSON KEITH'
p360
(dp361
g3
F176.0
sg4
F0.0
sg5
F28164.0
sg6
I00
sg7
F0.0
sg8
S'keith.dodson@enron.com'
p362
sg10
F10.0
sg11
F0.0
sg12
F0.0
sg13
F114.0
sg14
F0.0
sg15
F14.0
sg16
F774.0
sg17
F0.0
sg18
F0.0
sg19
F70000.0
sg20
F0.0
sg21
F3.0
sg22
F0.0
sg23
F221003.0
sg24
F319941.0
sg25
F15470210000.0
sg26
F0.0
sg27
F0.0
ssS'YEAGER F SCOTT'
p363
(dp364
g3
F0.0
sg4
F0.0
sg5
F53947.0
sg6
I01
sg7
F0.0
sg8
S'scott.yeager@enron.com'
p365
sg10
F0.0
sg11
F0.0
sg12
F0.0
sg13
F0.0
sg14
F0.0
sg15
F0.0
sg16
F147950.0
sg17
F0.0
sg18
F0.6990930736662875
sg19
F0.0
sg20
F11884758.0
sg21
F0.0
sg22
F3576206.0
sg23
F158403.0
sg24
F360300.0
sg25
F0.0
sg26
F8308552.0
sg27
F0.30090692633371247
ssS'HIRKO JOSEPH'
p366
(dp367
g3
F0.0
sg4
F10259.0
sg5
F77978.0
sg6
I01
sg7
F0.0
sg8
S'joe.hirko@enron.com'
p368
sg10
F0.0
sg11
F0.0
sg12
F0.0
sg13
F0.0
sg14
F0.0
sg15
F0.0
sg16
F2856.0
sg17
F0.0
sg18
F1.0
sg19
F0.0
sg20
F30766064.0
sg21
F0.0
sg22
F0.0
sg23
F0.0
sg24
F91093.0
sg25
F0.0
sg26
F30766064.0
sg27
F0.0
ssS'DIETRICH JANET R'
p369
(dp370
g3
F2572.0
sg4
F0.0
sg5
F3475.0
sg6
I00
sg7
F556416.0
sg8
S'janet.dietrich@enron.com'
p371
sg10
F305.0
sg11
F0.0
sg12
F0.0
sg13
F1902.0
sg14
F0.0
sg15
F63.0
sg16
F473.0
sg17
F0.0
sg18
F0.8310706149364614
sg19
F600000.0
sg20
F1865087.0
sg21
F14.0
sg22
F315068.0
sg23
F250100.0
sg24
F1410464.0
sg25
F150060000000.0
sg26
F1550019.0
sg27
F0.16892938506353858
ssS'DERRICK JR. JAMES V'
p372
(dp373
g3
F2181.0
sg4
F0.0
sg5
F51124.0
sg6
I00
sg7
F484000.0
sg8
S'james.derrick@enron.com'
p374
sg10
F64.0
sg11
F-1284000.0
sg12
F-1787380.0
sg13
F1401.0
sg14
F0.0
sg15
F909.0
sg16
F7482.0
sg17
F0.0
sg18
F1.0
sg19
F800000.0
sg20
F8831913.0
sg21
F20.0
sg22
F1787380.0
sg23
F492375.0
sg24
F550981.0
sg25
F393900000000.0
sg26
F8831913.0
sg27
F0.20237744642638578
ssS'FREVERT MARK A'
p375
(dp376
g3
F3275.0
sg4
F6426990.0
sg5
F86987.0
sg6
I00
sg7
F1617011.0
sg8
S'mark.frevert@enron.com'
p377
sg10
F242.0
sg11
F-3367011.0
sg12
F0.0
sg13
F2979.0
sg14
F2000000.0
sg15
F21.0
sg16
F7427621.0
sg17
F0.0
sg18
F0.713540281428528
sg19
F2000000.0
sg20
F14622185.0
sg21
F6.0
sg22
F4188667.0
sg23
F1060932.0
sg24
F17252530.0
sg25
F2121864000000.0
sg26
F10433518.0
sg27
F0.28645971857147207
ssS'PAI LOU L'
p378
(dp379
g3
F0.0
sg4
F0.0
sg5
F32047.0
sg6
I00
sg7
F0.0
sg8
S'lou.pai@enron.com'
p380
sg10
F0.0
sg11
F0.0
sg12
F0.0
sg13
F0.0
sg14
F0.0
sg15
F0.0
sg16
F1829457.0
sg17
F0.0
sg18
F0.6450672665508715
sg19
F1000000.0
sg20
F23817930.0
sg21
F0.0
sg22
F8453763.0
sg23
F261879.0
sg24
F3123383.0
sg25
F261879000000.0
sg26
F15364167.0
sg27
F0.35493273344912846
ssS'HAYSLETT RODERICK J'
p381
(dp382
g3
F2649.0
sg4
F0.0
sg5
F0.0
sg6
I00
sg7
F0.0
sg8
S'rod.hayslett@enron.com'
p383
sg10
F35.0
sg11
F0.0
sg12
F0.0
sg13
F571.0
sg14
F0.0
sg15
F1061.0
sg16
F0.0
sg17
F0.0
sg18
F0.0
sg19
F0.0
sg20
F346663.0
sg21
F38.0
sg22
F346663.0
sg23
F0.0
sg24
F0.0
sg25
F0.0
sg26
F0.0
sg27
F1.0
ssS'BAY FRANKLIN R'
p384
(dp385
g3
F0.0
sg4
F260455.0
sg5
F129142.0
sg6
I00
sg7
F0.0
sg8
S'frank.bay@enron.com'
p386
sg10
F0.0
sg11
F-201641.0
sg12
F-82782.0
sg13
F0.0
sg14
F0.0
sg15
F0.0
sg16
F69.0
sg17
F0.0
sg18
F0.0
sg19
F400000.0
sg20
F63014.0
sg21
F0.0
sg22
F145796.0
sg23
F239671.0
sg24
F827696.0
sg25
F95868400000.0
sg26
F0.0
sg27
F2.3137080648744726
ssS'MCCARTY DANNY J'
p387
(dp388
g3
F1433.0
sg4
F0.0
sg5
F0.0
sg6
I00
sg7
F0.0
sg8
S'danny.mccarty@enron.com'
p389
sg10
F25.0
sg11
F0.0
sg12
F0.0
sg13
F508.0
sg14
F0.0
sg15
F215.0
sg16
F0.0
sg17
F0.0
sg18
F0.8754089633971995
sg19
F0.0
sg20
F758931.0
sg21
F2.0
sg22
F94556.0
sg23
F0.0
sg24
F0.0
sg25
F0.0
sg26
F664375.0
sg27
F0.12459103660280052
ssS'FUGH JOHN L'
p390
(dp391
g3
F0.0
sg4
F50591.0
sg5
F0.0
sg6
I00
sg7
F0.0
sg8
F0.0
sg10
F0.0
sg11
F0.0
sg12
F0.0
sg13
F0.0
sg14
F0.0
sg15
F0.0
sg16
F0.0
sg17
F0.0
sg18
F1.0
sg19
F0.0
sg20
F176378.0
sg21
F0.0
sg22
F0.0
sg23
F0.0
sg24
F50591.0
sg25
F0.0
sg26
F176378.0
sg27
F0.0
ssS'SCRIMSHAW MATTHEW'
p392
(dp393
g3
F0.0
sg4
F0.0
sg5
F0.0
sg6
I00
sg7
F0.0
sg8
S'matthew.scrimshaw@enron.com'
p394
sg10
F0.0
sg11
F0.0
sg12
F0.0
sg13
F0.0
sg14
F0.0
sg15
F0.0
sg16
F0.0
sg17
F0.0
sg18
F1.0
sg19
F0.0
sg20
F759557.0
sg21
F0.0
sg22
F0.0
sg23
F0.0
sg24
F0.0
sg25
F0.0
sg26
F759557.0
sg27
F0.0
ssS'KOENIG MARK E'
p395
(dp396
g3
F2374.0
sg4
F0.0
sg5
F127017.0
sg6
I01
sg7
F300000.0
sg8
S'mark.koenig@enron.com'
p397
sg10
F53.0
sg11
F0.0
sg12
F0.0
sg13
F2271.0
sg14
F0.0
sg15
F61.0
sg16
F150458.0
sg17
F0.0
sg18
F0.3498529990026327
sg19
F700000.0
sg20
F1920055.0
sg21
F15.0
sg22
F1248318.0
sg23
F309946.0
sg24
F1587421.0
sg25
F216962200000.0
sg26
F671737.0
sg27
F0.6501470009973672
ssS'SAVAGE FRANK'
p398
(dp399
g3
F0.0
sg4
F0.0
sg5
F0.0
sg6
I00
sg7
F0.0
sg8
F0.0
sg10
F0.0
sg11
F-121284.0
sg12
F0.0
sg13
F0.0
sg14
F0.0
sg15
F0.0
sg16
F0.0
sg17
F125034.0
sg18
F0.0
sg19
F0.0
sg20
F0.0
sg21
F0.0
sg22
F0.0
sg23
F0.0
sg24
F3750.0
sg25
F0.0
sg26
F0.0
sg27
F0.0
ssS'IZZO LAWRENCE L'
p400
(dp401
g3
F496.0
sg4
F0.0
sg5
F28093.0
sg6
I00
sg7
F312500.0
sg8
S'larry.izzo@enron.com'
p402
sg10
F28.0
sg11
F0.0
sg12
F0.0
sg13
F437.0
sg14
F0.0
sg15
F19.0
sg16
F1553729.0
sg17
F0.0
sg18
F0.3720239588452194
sg19
F0.0
sg20
F5819980.0
sg21
F5.0
sg22
F3654808.0
sg23
F85274.0
sg24
F1979596.0
sg25
F0.0
sg26
F2165172.0
sg27
F0.6279760411547806
ssS'TILNEY ELIZABETH A'
p403
(dp404
g3
F460.0
sg4
F0.0
sg5
F0.0
sg6
I00
sg7
F275000.0
sg8
S'elizabeth.tilney@enron.com'
p405
sg10
F10.0
sg11
F-575000.0
sg12
F0.0
sg13
F379.0
sg14
F0.0
sg15
F19.0
sg16
F152055.0
sg17
F0.0
sg18
F0.5061889897794771
sg19
F300000.0
sg20
F1168042.0
sg21
F11.0
sg22
F576792.0
sg23
F247338.0
sg24
F399393.0
sg25
F74201400000.0
sg26
F591250.0
sg27
F0.4938110102205229
ssS'MARTIN AMANDA K'
p406
(dp407
g3
F1522.0
sg4
F85430.0
sg5
F8211.0
sg6
I00
sg7
F5145434.0
sg8
S'a..martin@enron.com'
p408
sg10
F8.0
sg11
F0.0
sg12
F0.0
sg13
F477.0
sg14
F0.0
sg15
F230.0
sg16
F2818454.0
sg17
F0.0
sg18
F1.0
sg19
F0.0
sg20
F2070306.0
sg21
F0.0
sg22
F0.0
sg23
F349487.0
sg24
F8407016.0
sg25
F0.0
sg26
F2070306.0
sg27
F0.0
ssS'BUY RICHARD B'
p409
(dp410
g3
F3523.0
sg4
F649584.0
sg5
F0.0
sg6
I00
sg7
F769862.0
sg8
S'rick.buy@enron.com'
p411
sg10
F156.0
sg11
F-694862.0
sg12
F0.0
sg13
F2333.0
sg14
F0.0
sg15
F1053.0
sg16
F400572.0
sg17
F0.0
sg18
F0.7382305550636237
sg19
F900000.0
sg20
F3444470.0
sg21
F71.0
sg22
F901657.0
sg23
F330546.0
sg24
F2355702.0
sg25
F297491400000.0
sg26
F2542813.0
sg27
F0.26176944493637627
ssS'GRAMM WENDY L'
p412
(dp413
g3
F0.0
sg4
F0.0
sg5
F0.0
sg6
I00
sg7
F0.0
sg8
F0.0
sg10
F0.0
sg11
F0.0
sg12
F0.0
sg13
F0.0
sg14
F0.0
sg15
F0.0
sg16
F0.0
sg17
F119292.0
sg18
F0.0
sg19
F0.0
sg20
F0.0
sg21
F0.0
sg22
F0.0
sg23
F0.0
sg24
F119292.0
sg25
F0.0
sg26
F0.0
sg27
F0.0
ssS'CAUSEY RICHARD A'
p414
(dp415
g3
F1892.0
sg4
F0.0
sg5
F30674.0
sg6
I01
sg7
F350000.0
sg8
S'richard.causey@enron.com'
p416
sg10
F58.0
sg11
F-235000.0
sg12
F0.0
sg13
F1585.0
sg14
F0.0
sg15
F49.0
sg16
F307895.0
sg17
F0.0
sg18
F0.0
sg19
F1000000.0
sg20
F2502063.0
sg21
F12.0
sg22
F2502063.0
sg23
F415189.0
sg24
F1868758.0
sg25
F415189000000.0
sg26
F0.0
sg27
F1.0
ssS'TAYLOR MITCHELL S'
p417
(dp418
g3
F533.0
sg4
F227449.0
sg5
F0.0
sg6
I00
sg7
F0.0
sg8
S'mitchell.taylor@enron.com'
p419
sg10
F0.0
sg11
F0.0
sg12
F0.0
sg13
F300.0
sg14
F0.0
sg15
F29.0
sg16
F0.0
sg17
F0.0
sg18
F0.849455067064561
sg19
F600000.0
sg20
F3745048.0
sg21
F0.0
sg22
F563798.0
sg23
F265214.0
sg24
F1092663.0
sg25
F159128400000.0
sg26
F3181250.0
sg27
F0.15054493293543902
ssS'DONAHUE JR JEFFREY M'
p420
(dp421
g3
F865.0
sg4
F0.0
sg5
F96268.0
sg6
I00
sg7
F0.0
sg8
S'jeff.donahue@enron.com'
p422
sg10
F188.0
sg11
F-300000.0
sg12
F0.0
sg13
F772.0
sg14
F0.0
sg15
F22.0
sg16
F891.0
sg17
F0.0
sg18
F0.7085370050361336
sg19
F800000.0
sg20
F1080988.0
sg21
F11.0
sg22
F315068.0
sg23
F278601.0
sg24
F875760.0
sg25
F222880800000.0
sg26
F765920.0
sg27
F0.2914629949638664
ssS'GLISAN JR BEN F'
p423
(dp424
g3
F873.0
sg4
F0.0
sg5
F125978.0
sg6
I01
sg7
F71023.0
sg8
S'ben.glisan@enron.com'
p425
sg10
F52.0
sg11
F0.0
sg12
F0.0
sg13
F874.0
sg14
F0.0
sg15
F16.0
sg16
F200308.0
sg17
F0.0
sg18
F0.49416219465516487
sg19
F600000.0
sg20
F778546.0
sg21
F6.0
sg22
F393818.0
sg23
F274975.0
sg24
F1272284.0
sg25
F164985000000.0
sg26
F384728.0
sg27
F0.5058378053448351
ss.