(lp0
S'poi'
p1
aS'total_stock_value'
p2
aS'exercised_stock_options'
p3
aS'bonus'
p4
aS'salary'
p5
aS'total_payments'
p6
aS'long_term_incentive'
p7
aS'shared_receipt_with_poi'
p8
aS'other'
p9
aS'expenses'
p10
aS'from_poi_to_this_person'
p11
aS'from_this_person_to_poi'
p12
aS'restricted_stock'
p13
aS'to_messages'
p14
aS'deferred_income'
p15
aS'ratio_restricted_total_stock'
p16
aS'ratio_exercised_stock_total_stock'
p17
a.